target datalayout = "e-m:e-p270:32:32-p271:32:32-p272:64:64-i64:64-i128:128-f80:128-n8:16:32:64-S128"
target triple = "x86_64-pc-linux-gnu"

%struct.PlannerInfo = type { i32, ptr, ptr, i32, ptr, ptr, ptr, ptr, i32, ptr, ptr, ptr, ptr, ptr, ptr, ptr, ptr, i32, ptr, ptr, ptr, ptr, ptr, i8, ptr, ptr, ptr, ptr, ptr, i32, ptr, ptr, ptr, ptr, ptr, ptr, ptr, i32, ptr, ptr, ptr, i32, ptr, ptr, ptr, ptr, ptr, ptr, [8 x ptr], [8 x ptr], ptr, ptr, ptr, ptr, ptr, ptr, ptr, double, double, double, i32, i8, i8, i8, i8, i8, i8, i8, i32, ptr, ptr, i32, i8, i8, i32, ptr, ptr, ptr, ptr, ptr, ptr, i8, ptr }
%struct.RangeTblEntry = type { i32, ptr, ptr, i32, i32, i8, i8, i32, i32, ptr, ptr, i8, i32, i32, ptr, ptr, ptr, ptr, ptr, i8, ptr, ptr, ptr, i32, i8, ptr, ptr, ptr, ptr, double, ptr, i8, i8, ptr }

@.str.1 = private unnamed_addr constant [10 x i8] c"relnode.c\00", align 1
@.str.4 = private unnamed_addr constant [31 x i8] c"no relation entry for relid %d\00", align 1
@__func__.find_base_rel_ignore_join = private unnamed_addr constant [26 x i8] c"find_base_rel_ignore_join\00", align 1

; Function Attrs: nounwind uwtable
define dso_local ptr @find_base_rel_ignore_join(ptr noundef %0, i32 noundef %1) #0 {
  %3 = alloca ptr, align 8
  %4 = alloca ptr, align 8
  %5 = alloca i32, align 4
  %6 = alloca ptr, align 8
  %7 = alloca ptr, align 8
  %8 = alloca i32, align 4
  store ptr %0, ptr %4, align 8
  store i32 %1, ptr %5, align 4
  %9 = load i32, ptr %5, align 4
  %10 = load ptr, ptr %4, align 8
  %11 = getelementptr inbounds nuw %struct.PlannerInfo, ptr %10, i32 0, i32 8
  %12 = load i32, ptr %11, align 8
  %13 = icmp ult i32 %9, %12
  br i1 %13, label %14, label %51

14:                                               ; preds = %2
  call void @llvm.lifetime.start.p0(i64 8, ptr %6) #6
  call void @llvm.lifetime.start.p0(i64 8, ptr %7) #6
  %15 = load ptr, ptr %4, align 8
  %16 = getelementptr inbounds nuw %struct.PlannerInfo, ptr %15, i32 0, i32 7
  %17 = load ptr, ptr %16, align 8
  %18 = load i32, ptr %5, align 4
  %19 = sext i32 %18 to i64
  %20 = getelementptr inbounds ptr, ptr %17, i64 %19
  %21 = load ptr, ptr %20, align 8
  store ptr %21, ptr %6, align 8
  %22 = load ptr, ptr %6, align 8
  %23 = icmp ne ptr %22, null
  br i1 %23, label %24, label %26

24:                                               ; preds = %14
  %25 = load ptr, ptr %6, align 8
  store ptr %25, ptr %3, align 8
  store i32 1, ptr %8, align 4
  br label %48

26:                                               ; preds = %14
  %27 = load ptr, ptr %4, align 8
  %28 = getelementptr inbounds nuw %struct.PlannerInfo, ptr %27, i32 0, i32 9
  %29 = load ptr, ptr %28, align 8
  %30 = load i32, ptr %5, align 4
  %31 = sext i32 %30 to i64
  %32 = getelementptr inbounds ptr, ptr %29, i64 %31
  %33 = load ptr, ptr %32, align 8
  store ptr %33, ptr %7, align 8
  %34 = load ptr, ptr %7, align 8
  %35 = icmp ne ptr %34, null
  br i1 %35, label %36, label %47

36:                                               ; preds = %26
  %37 = load ptr, ptr %7, align 8
  %38 = getelementptr inbounds nuw %struct.RangeTblEntry, ptr %37, i32 0, i32 3
  %39 = load i32, ptr %38, align 8
  %40 = icmp eq i32 %39, 2
  br i1 %40, label %41, label %47

41:                                               ; preds = %36
  %42 = load ptr, ptr %7, align 8
  %43 = getelementptr inbounds nuw %struct.RangeTblEntry, ptr %42, i32 0, i32 12
  %44 = load i32, ptr %43, align 4
  %45 = icmp ne i32 %44, 0
  br i1 %45, label %46, label %47

46:                                               ; preds = %41
  store ptr null, ptr %3, align 8
  store i32 1, ptr %8, align 4
  br label %48

47:                                               ; preds = %41, %36, %26
  store i32 0, ptr %8, align 4
  br label %48

48:                                               ; preds = %47, %46, %24
  call void @llvm.lifetime.end.p0(i64 8, ptr %7) #6
  call void @llvm.lifetime.end.p0(i64 8, ptr %6) #6
  %49 = load i32, ptr %8, align 4
  switch i32 %49, label %64 [
    i32 0, label %50
    i32 1, label %62
  ]

50:                                               ; preds = %48
  br label %51

51:                                               ; preds = %50, %2
  br label %52

52:                                               ; preds = %51
  br i1 true, label %53, label %55

53:                                               ; preds = %52
  %54 = call zeroext i1 @errstart_cold(i32 noundef 21, ptr noundef null) #7
  br i1 %54, label %57, label %60

55:                                               ; preds = %52
  %56 = call zeroext i1 @errstart(i32 noundef 21, ptr noundef null)
  br i1 %56, label %57, label %60

57:                                               ; preds = %55, %53
  %58 = load i32, ptr %5, align 4
  %59 = call i32 (ptr, ...) @errmsg_internal(ptr noundef @.str.4, i32 noundef %58)
  call void @errfinish(ptr noundef @.str.1, i32 noundef 476, ptr noundef @__func__.find_base_rel_ignore_join)
  br label %60

60:                                               ; preds = %57, %55, %53
  unreachable

61:                                               ; No predecessors!
  store ptr null, ptr %3, align 8
  br label %62

62:                                               ; preds = %61, %48
  %63 = load ptr, ptr %3, align 8
  ret ptr %63

64:                                               ; preds = %48
  unreachable
}