; Function Attrs: nounwind uwtable
define dso_local ptr @find_base_rel_ignore_join(ptr noundef readonly captures(none) %0, i32 noundef %1) local_unnamed_addr #0 {
  %3 = getelementptr inbounds nuw i8, ptr %0, i64 64
  %4 = load i32, ptr %3, align 8
  %5 = icmp ult i32 %1, %4
  br i1 %5, label %6, label %24

6:                                                ; preds = %2
  %7 = getelementptr inbounds nuw i8, ptr %0, i64 56
  %8 = load ptr, ptr %7, align 8
  %9 = sext i32 %1 to i64
  %10 = getelementptr inbounds ptr, ptr %8, i64 %9
  %11 = load ptr, ptr %10, align 8
  %.not = icmp eq ptr %11, null
  br i1 %.not, label %12, label %27

12:                                               ; preds = %6
  %13 = getelementptr inbounds nuw i8, ptr %0, i64 72
  %14 = load ptr, ptr %13, align 8
  %15 = getelementptr inbounds ptr, ptr %14, i64 %9
  %16 = load ptr, ptr %15, align 8
  %.not17 = icmp eq ptr %16, null
  br i1 %.not17, label %24, label %17

17:                                               ; preds = %12
  %18 = getelementptr inbounds nuw i8, ptr %16, i64 24
  %19 = load i32, ptr %18, align 8
  %20 = icmp eq i32 %19, 2
  br i1 %20, label %21, label %24

21:                                               ; preds = %17
  %22 = getelementptr inbounds nuw i8, ptr %16, i64 68
  %23 = load i32, ptr %22, align 4
  %.not18 = icmp eq i32 %23, 0
  br i1 %.not18, label %24, label %27

24:                                               ; preds = %21, %17, %12, %2
  %25 = tail call zeroext i1 @errstart_cold(i32 noundef 21, ptr noundef null) #8
  tail call void @llvm.assume(i1 %25)
  %26 = tail call i32 (ptr, ...) @errmsg_internal(ptr noundef nonnull @.str.4, i32 noundef %1) #7
  tail call void @errfinish(ptr noundef nonnull @.str.1, i32 noundef 476, ptr noundef nonnull @__func__.find_base_rel_ignore_join) #7
  unreachable

27:                                               ; preds = %6, %21
  ret ptr %11
}